; Function Attrs: nofree norecurse nosync nounwind memory(argmem: readwrite) uwtable
define internal void @pred16x16_horizontal_8_c(ptr noundef captures(none) %0, i64 noundef %1) #3 {
  br label %3

3:                                                ; preds = %2, %3
  %indvars.iv = phi i64 [ 0, %2 ], [ %indvars.iv.next, %3 ]
  %4 = mul nsw i64 %1, %indvars.iv
  %5 = getelementptr i8, ptr %0, i64 %4
  %6 = getelementptr i8, ptr %5, i64 -1
  %7 = load i8, ptr %6, align 1, !tbaa !8
  %8 = zext i8 %7 to i32
  %9 = mul nuw i32 %8, 16843009
  store i32 %9, ptr %5, align 4, !tbaa !8
  %10 = getelementptr inbounds nuw i8, ptr %5, i64 4
  store i32 %9, ptr %10, align 4, !tbaa !8
  %11 = getelementptr inbounds nuw i8, ptr %5, i64 8
  store i32 %9, ptr %11, align 4, !tbaa !8
  %12 = getelementptr inbounds nuw i8, ptr %5, i64 12
  store i32 %9, ptr %12, align 4, !tbaa !8
  %indvars.iv.next = add nuw nsw i64 %indvars.iv, 1
  %exitcond.not = icmp eq i64 %indvars.iv.next, 16
  br i1 %exitcond.not, label %13, label %3, !llvm.loop !288

13:                                               ; preds = %3
  ret void
}